target datalayout = "e-m:e-p270:32:32-p271:32:32-p272:64:64-i64:64-i128:128-f80:128-n8:16:32:64-S128"
target triple = "x86_64-pc-linux-gnu"

%struct.DWTContext = type { [32 x [2 x i32]], [32 x [2 x i8]], i8, i8, ptr, ptr }

; Function Attrs: nounwind uwtable
define i32 @ff_jpeg2000_dwt_init(ptr noundef %0, ptr noundef %1, i32 noundef %2, i32 noundef %3) #0 {
  %5 = alloca i32, align 4
  %6 = alloca ptr, align 8
  %7 = alloca ptr, align 8
  %8 = alloca i32, align 4
  %9 = alloca i32, align 4
  %10 = alloca i32, align 4
  %11 = alloca i32, align 4
  %12 = alloca i32, align 4
  %13 = alloca i32, align 4
  %14 = alloca [2 x [2 x i32]], align 16
  %15 = alloca i32, align 4
  store ptr %0, ptr %6, align 8, !tbaa !4
  store ptr %1, ptr %7, align 8, !tbaa !9
  store i32 %2, ptr %8, align 4, !tbaa !11
  store i32 %3, ptr %9, align 4, !tbaa !11
  call void @llvm.lifetime.start.p0(i64 4, ptr %10) #5
  call void @llvm.lifetime.start.p0(i64 4, ptr %11) #5
  call void @llvm.lifetime.start.p0(i64 4, ptr %12) #5
  %16 = load i32, ptr %8, align 4, !tbaa !11
  store i32 %16, ptr %12, align 4, !tbaa !11
  call void @llvm.lifetime.start.p0(i64 4, ptr %13) #5
  call void @llvm.lifetime.start.p0(i64 16, ptr %14) #5
  %17 = load i32, ptr %8, align 4, !tbaa !11
  %18 = trunc i32 %17 to i8
  %19 = load ptr, ptr %6, align 8, !tbaa !4
  %20 = getelementptr inbounds nuw %struct.DWTContext, ptr %19, i32 0, i32 2
  store i8 %18, ptr %20, align 8, !tbaa !13
  %21 = load i32, ptr %9, align 4, !tbaa !11
  %22 = trunc i32 %21 to i8
  %23 = load ptr, ptr %6, align 8, !tbaa !4
  %24 = getelementptr inbounds nuw %struct.DWTContext, ptr %23, i32 0, i32 3
  store i8 %22, ptr %24, align 1, !tbaa !16
  store i32 0, ptr %10, align 4, !tbaa !11
  br label %25

25:                                               ; preds = %51, %4
  %26 = load i32, ptr %10, align 4, !tbaa !11
  %27 = icmp slt i32 %26, 2
  br i1 %27, label %28, label %54

28:                                               ; preds = %25
  store i32 0, ptr %11, align 4, !tbaa !11
  br label %29

29:                                               ; preds = %47, %28
  %30 = load i32, ptr %11, align 4, !tbaa !11
  %31 = icmp slt i32 %30, 2
  br i1 %31, label %32, label %50

32:                                               ; preds = %29
  %33 = load ptr, ptr %7, align 8, !tbaa !9
  %34 = load i32, ptr %10, align 4, !tbaa !11
  %35 = sext i32 %34 to i64
  %36 = getelementptr inbounds [2 x i32], ptr %33, i64 %35
  %37 = load i32, ptr %11, align 4, !tbaa !11
  %38 = sext i32 %37 to i64
  %39 = getelementptr inbounds [2 x i32], ptr %36, i64 0, i64 %38
  %40 = load i32, ptr %39, align 4, !tbaa !11
  %41 = load i32, ptr %10, align 4, !tbaa !11
  %42 = sext i32 %41 to i64
  %43 = getelementptr inbounds [2 x [2 x i32]], ptr %14, i64 0, i64 %42
  %44 = load i32, ptr %11, align 4, !tbaa !11
  %45 = sext i32 %44 to i64
  %46 = getelementptr inbounds [2 x i32], ptr %43, i64 0, i64 %45
  store i32 %40, ptr %46, align 4, !tbaa !11
  br label %47

47:                                               ; preds = %32
  %48 = load i32, ptr %11, align 4, !tbaa !11
  %49 = add nsw i32 %48, 1
  store i32 %49, ptr %11, align 4, !tbaa !11
  br label %29, !llvm.loop !17

50:                                               ; preds = %29
  br label %51

51:                                               ; preds = %50
  %52 = load i32, ptr %10, align 4, !tbaa !11
  %53 = add nsw i32 %52, 1
  store i32 %53, ptr %10, align 4, !tbaa !11
  br label %25, !llvm.loop !19

54:                                               ; preds = %25
  %55 = getelementptr inbounds [2 x [2 x i32]], ptr %14, i64 0, i64 0
  %56 = getelementptr inbounds [2 x i32], ptr %55, i64 0, i64 1
  %57 = load i32, ptr %56, align 4, !tbaa !11
  %58 = getelementptr inbounds [2 x [2 x i32]], ptr %14, i64 0, i64 0
  %59 = getelementptr inbounds [2 x i32], ptr %58, i64 0, i64 0
  %60 = load i32, ptr %59, align 16, !tbaa !11
  %61 = sub nsw i32 %57, %60
  %62 = getelementptr inbounds [2 x [2 x i32]], ptr %14, i64 0, i64 1
  %63 = getelementptr inbounds [2 x i32], ptr %62, i64 0, i64 1
  %64 = load i32, ptr %63, align 4, !tbaa !11
  %65 = getelementptr inbounds [2 x [2 x i32]], ptr %14, i64 0, i64 1
  %66 = getelementptr inbounds [2 x i32], ptr %65, i64 0, i64 0
  %67 = load i32, ptr %66, align 8, !tbaa !11
  %68 = sub nsw i32 %64, %67
  %69 = icmp sgt i32 %61, %68
  br i1 %69, label %70, label %78

70:                                               ; preds = %54
  %71 = getelementptr inbounds [2 x [2 x i32]], ptr %14, i64 0, i64 0
  %72 = getelementptr inbounds [2 x i32], ptr %71, i64 0, i64 1
  %73 = load i32, ptr %72, align 4, !tbaa !11
  %74 = getelementptr inbounds [2 x [2 x i32]], ptr %14, i64 0, i64 0
  %75 = getelementptr inbounds [2 x i32], ptr %74, i64 0, i64 0
  %76 = load i32, ptr %75, align 16, !tbaa !11
  %77 = sub nsw i32 %73, %76
  br label %86

78:                                               ; preds = %54
  %79 = getelementptr inbounds [2 x [2 x i32]], ptr %14, i64 0, i64 1
  %80 = getelementptr inbounds [2 x i32], ptr %79, i64 0, i64 1
  %81 = load i32, ptr %80, align 4, !tbaa !11
  %82 = getelementptr inbounds [2 x [2 x i32]], ptr %14, i64 0, i64 1
  %83 = getelementptr inbounds [2 x i32], ptr %82, i64 0, i64 0
  %84 = load i32, ptr %83, align 8, !tbaa !11
  %85 = sub nsw i32 %81, %84
  br label %86

86:                                               ; preds = %78, %70
  %87 = phi i32 [ %77, %70 ], [ %85, %78 ]
  store i32 %87, ptr %13, align 4, !tbaa !11
  br label %88

88:                                               ; preds = %157, %86
  %89 = load i32, ptr %12, align 4, !tbaa !11
  %90 = add nsw i32 %89, -1
  store i32 %90, ptr %12, align 4, !tbaa !11
  %91 = icmp sge i32 %90, 0
  br i1 %91, label %92, label %158

92:                                               ; preds = %88
  store i32 0, ptr %10, align 4, !tbaa !11
  br label %93

93:                                               ; preds = %154, %92
  %94 = load i32, ptr %10, align 4, !tbaa !11
  %95 = icmp slt i32 %94, 2
  br i1 %95, label %96, label %157

96:                                               ; preds = %93
  %97 = load i32, ptr %10, align 4, !tbaa !11
  %98 = sext i32 %97 to i64
  %99 = getelementptr inbounds [2 x [2 x i32]], ptr %14, i64 0, i64 %98
  %100 = getelementptr inbounds [2 x i32], ptr %99, i64 0, i64 1
  %101 = load i32, ptr %100, align 4, !tbaa !11
  %102 = load i32, ptr %10, align 4, !tbaa !11
  %103 = sext i32 %102 to i64
  %104 = getelementptr inbounds [2 x [2 x i32]], ptr %14, i64 0, i64 %103
  %105 = getelementptr inbounds [2 x i32], ptr %104, i64 0, i64 0
  %106 = load i32, ptr %105, align 8, !tbaa !11
  %107 = sub nsw i32 %101, %106
  %108 = load ptr, ptr %6, align 8, !tbaa !4
  %109 = getelementptr inbounds nuw %struct.DWTContext, ptr %108, i32 0, i32 0
  %110 = load i32, ptr %12, align 4, !tbaa !11
  %111 = sext i32 %110 to i64
  %112 = getelementptr inbounds [32 x [2 x i32]], ptr %109, i64 0, i64 %111
  %113 = load i32, ptr %10, align 4, !tbaa !11
  %114 = sext i32 %113 to i64
  %115 = getelementptr inbounds [2 x i32], ptr %112, i64 0, i64 %114
  store i32 %107, ptr %115, align 4, !tbaa !11
  %116 = load i32, ptr %10, align 4, !tbaa !11
  %117 = sext i32 %116 to i64
  %118 = getelementptr inbounds [2 x [2 x i32]], ptr %14, i64 0, i64 %117
  %119 = getelementptr inbounds [2 x i32], ptr %118, i64 0, i64 0
  %120 = load i32, ptr %119, align 8, !tbaa !11
  %121 = and i32 %120, 1
  %122 = trunc i32 %121 to i8
  %123 = load ptr, ptr %6, align 8, !tbaa !4
  %124 = getelementptr inbounds nuw %struct.DWTContext, ptr %123, i32 0, i32 1
  %125 = load i32, ptr %12, align 4, !tbaa !11
  %126 = sext i32 %125 to i64
  %127 = getelementptr inbounds [32 x [2 x i8]], ptr %124, i64 0, i64 %126
  %128 = load i32, ptr %10, align 4, !tbaa !11
  %129 = sext i32 %128 to i64
  %130 = getelementptr inbounds [2 x i8], ptr %127, i64 0, i64 %129
  store i8 %122, ptr %130, align 1, !tbaa !20
  store i32 0, ptr %11, align 4, !tbaa !11
  br label %131

131:                                              ; preds = %150, %96
  %132 = load i32, ptr %11, align 4, !tbaa !11
  %133 = icmp slt i32 %132, 2
  br i1 %133, label %134, label %153

134:                                              ; preds = %131
  %135 = load i32, ptr %10, align 4, !tbaa !11
  %136 = sext i32 %135 to i64
  %137 = getelementptr inbounds [2 x [2 x i32]], ptr %14, i64 0, i64 %136
  %138 = load i32, ptr %11, align 4, !tbaa !11
  %139 = sext i32 %138 to i64
  %140 = getelementptr inbounds [2 x i32], ptr %137, i64 0, i64 %139
  %141 = load i32, ptr %140, align 4, !tbaa !11
  %142 = add nsw i32 %141, 1
  %143 = ashr i32 %142, 1
  %144 = load i32, ptr %10, align 4, !tbaa !11
  %145 = sext i32 %144 to i64
  %146 = getelementptr inbounds [2 x [2 x i32]], ptr %14, i64 0, i64 %145
  %147 = load i32, ptr %11, align 4, !tbaa !11
  %148 = sext i32 %147 to i64
  %149 = getelementptr inbounds [2 x i32], ptr %146, i64 0, i64 %148
  store i32 %143, ptr %149, align 4, !tbaa !11
  br label %150

150:                                              ; preds = %134
  %151 = load i32, ptr %11, align 4, !tbaa !11
  %152 = add nsw i32 %151, 1
  store i32 %152, ptr %11, align 4, !tbaa !11
  br label %131, !llvm.loop !21

153:                                              ; preds = %131
  br label %154

154:                                              ; preds = %153
  %155 = load i32, ptr %10, align 4, !tbaa !11
  %156 = add nsw i32 %155, 1
  store i32 %156, ptr %10, align 4, !tbaa !11
  br label %93, !llvm.loop !22

157:                                              ; preds = %93
  br label %88, !llvm.loop !23

158:                                              ; preds = %88
  %159 = load i32, ptr %9, align 4, !tbaa !11
  switch i32 %159, label %199 [
    i32 0, label %160
    i32 2, label %173
    i32 1, label %186
  ]

160:                                              ; preds = %158
  %161 = load i32, ptr %13, align 4, !tbaa !11
  %162 = add nsw i32 %161, 12
  %163 = sext i32 %162 to i64
  %164 = call ptr @av_malloc_array(i64 noundef %163, i64 noundef 4)
  %165 = load ptr, ptr %6, align 8, !tbaa !4
  %166 = getelementptr inbounds nuw %struct.DWTContext, ptr %165, i32 0, i32 5
  store ptr %164, ptr %166, align 8, !tbaa !24
  %167 = load ptr, ptr %6, align 8, !tbaa !4
  %168 = getelementptr inbounds nuw %struct.DWTContext, ptr %167, i32 0, i32 5
  %169 = load ptr, ptr %168, align 8, !tbaa !24
  %170 = icmp ne ptr %169, null
  br i1 %170, label %172, label %171

171:                                              ; preds = %160
  store i32 -12, ptr %5, align 4
  store i32 1, ptr %15, align 4
  br label %201

172:                                              ; preds = %160
  br label %200

173:                                              ; preds = %158
  %174 = load i32, ptr %13, align 4, !tbaa !11
  %175 = add nsw i32 %174, 12
  %176 = sext i32 %175 to i64
  %177 = call ptr @av_malloc_array(i64 noundef %176, i64 noundef 4)
  %178 = load ptr, ptr %6, align 8, !tbaa !4
  %179 = getelementptr inbounds nuw %struct.DWTContext, ptr %178, i32 0, i32 4
  store ptr %177, ptr %179, align 8, !tbaa !25
  %180 = load ptr, ptr %6, align 8, !tbaa !4
  %181 = getelementptr inbounds nuw %struct.DWTContext, ptr %180, i32 0, i32 4
  %182 = load ptr, ptr %181, align 8, !tbaa !25
  %183 = icmp ne ptr %182, null
  br i1 %183, label %185, label %184

184:                                              ; preds = %173
  store i32 -12, ptr %5, align 4
  store i32 1, ptr %15, align 4
  br label %201

185:                                              ; preds = %173
  br label %200

186:                                              ; preds = %158
  %187 = load i32, ptr %13, align 4, !tbaa !11
  %188 = add nsw i32 %187, 6
  %189 = sext i32 %188 to i64
  %190 = call ptr @av_malloc_array(i64 noundef %189, i64 noundef 4)
  %191 = load ptr, ptr %6, align 8, !tbaa !4
  %192 = getelementptr inbounds nuw %struct.DWTContext, ptr %191, i32 0, i32 4
  store ptr %190, ptr %192, align 8, !tbaa !25
  %193 = load ptr, ptr %6, align 8, !tbaa !4
  %194 = getelementptr inbounds nuw %struct.DWTContext, ptr %193, i32 0, i32 4
  %195 = load ptr, ptr %194, align 8, !tbaa !25
  %196 = icmp ne ptr %195, null
  br i1 %196, label %198, label %197

197:                                              ; preds = %186
  store i32 -12, ptr %5, align 4
  store i32 1, ptr %15, align 4
  br label %201

198:                                              ; preds = %186
  br label %200

199:                                              ; preds = %158
  store i32 -1, ptr %5, align 4
  store i32 1, ptr %15, align 4
  br label %201

200:                                              ; preds = %198, %185, %172
  store i32 0, ptr %5, align 4
  store i32 1, ptr %15, align 4
  br label %201

201:                                              ; preds = %200, %199, %197, %184, %171
  call void @llvm.lifetime.end.p0(i64 16, ptr %14) #5
  call void @llvm.lifetime.end.p0(i64 4, ptr %13) #5
  call void @llvm.lifetime.end.p0(i64 4, ptr %12) #5
  call void @llvm.lifetime.end.p0(i64 4, ptr %11) #5
  call void @llvm.lifetime.end.p0(i64 4, ptr %10) #5
  %202 = load i32, ptr %5, align 4
  ret i32 %202
}