; Function Attrs: nounwind uwtable
define range(i32 -12, 1) i32 @ff_jpeg2000_dwt_init(ptr noundef writeonly captures(none) initializes((320, 322)) %0, ptr noundef readonly captures(none) %1, i32 noundef %2, i32 noundef %3) local_unnamed_addr #0 {
  %5 = alloca [2 x [2 x i32]], align 16
  call void @llvm.lifetime.start.p0(i64 16, ptr nonnull %5) #8
  %6 = trunc i32 %2 to i8
  %7 = getelementptr inbounds nuw i8, ptr %0, i64 320
  store i8 %6, ptr %7, align 8, !tbaa !4
  %8 = trunc i32 %3 to i8
  %9 = getelementptr inbounds nuw i8, ptr %0, i64 321
  store i8 %8, ptr %9, align 1, !tbaa !11
  call void @llvm.memcpy.p0.p0.i64(ptr noundef nonnull align 16 dereferenceable(16) %5, ptr noundef nonnull align 4 dereferenceable(16) %1, i64 16, i1 false), !tbaa !12
  %10 = getelementptr inbounds nuw i8, ptr %5, i64 4
  %11 = load i32, ptr %10, align 4, !tbaa !12
  %12 = load i32, ptr %5, align 16, !tbaa !12
  %13 = sub nsw i32 %11, %12
  %14 = getelementptr inbounds nuw i8, ptr %5, i64 8
  %15 = getelementptr inbounds nuw i8, ptr %5, i64 12
  %16 = load i32, ptr %15, align 4, !tbaa !12
  %17 = load i32, ptr %14, align 8, !tbaa !12
  %18 = sub nsw i32 %16, %17
  %. = tail call i32 @llvm.smax.i32(i32 %13, i32 %18)
  %19 = icmp sgt i32 %2, 0
  %indvars.iv60.sroa.gep66 = getelementptr inbounds nuw i8, ptr %5, i64 8
  %indvars.iv60.sroa.gep69 = getelementptr inbounds nuw i8, ptr %5, i64 8
  %indvars.iv60.sroa.gep71 = getelementptr inbounds nuw i8, ptr %5, i64 4
  %indvars.iv60.sroa.gep72 = getelementptr inbounds nuw i8, ptr %5, i64 12
  br i1 %19, label %.preheader.lr.ph, label %._crit_edge

.preheader.lr.ph:                                 ; preds = %4
  %20 = getelementptr inbounds nuw i8, ptr %0, i64 256
  %21 = zext nneg i32 %2 to i64
  br label %.preheader

.loopexit:                                        ; preds = %.critedge
  %22 = icmp sgt i64 %indvars.iv63, 1
  br i1 %22, label %.preheader, label %._crit_edge, !llvm.loop !14

.preheader:                                       ; preds = %.preheader.lr.ph, %.loopexit
  %indvars.iv63 = phi i64 [ %21, %.preheader.lr.ph ], [ %indvars.iv.next64, %.loopexit ]
  %indvars.iv.next64 = add nsw i64 %indvars.iv63, -1
  br label %.critedge

.critedge:                                        ; preds = %.preheader, %.critedge
  %23 = phi i1 [ true, %.preheader ], [ false, %.critedge ]
  %indvars.iv60.sroa.phi = phi ptr [ %5, %.preheader ], [ %indvars.iv60.sroa.gep66, %.critedge ]
  %indvars.iv60.sroa.phi67 = phi ptr [ %5, %.preheader ], [ %indvars.iv60.sroa.gep69, %.critedge ]
  %indvars.iv60.sroa.phi70 = phi ptr [ %indvars.iv60.sroa.gep71, %.preheader ], [ %indvars.iv60.sroa.gep72, %.critedge ]
  %indvars.iv60 = phi i64 [ 0, %.preheader ], [ 1, %.critedge ]
  %24 = getelementptr inbounds nuw i8, ptr %indvars.iv60.sroa.phi, i64 4
  %25 = load i32, ptr %24, align 4, !tbaa !12
  %26 = load i32, ptr %indvars.iv60.sroa.phi, align 8, !tbaa !12
  %27 = sub nsw i32 %25, %26
  %28 = getelementptr inbounds nuw [32 x [2 x i32]], ptr %0, i64 0, i64 %indvars.iv.next64, i64 %indvars.iv60
  store i32 %27, ptr %28, align 4, !tbaa !12
  %29 = trunc i32 %26 to i8
  %30 = and i8 %29, 1
  %31 = getelementptr inbounds nuw [32 x [2 x i8]], ptr %20, i64 0, i64 %indvars.iv.next64, i64 %indvars.iv60
  store i8 %30, ptr %31, align 1, !tbaa !16
  %32 = load i32, ptr %indvars.iv60.sroa.phi67, align 4, !tbaa !12
  %33 = add nsw i32 %32, 1
  %34 = ashr i32 %33, 1
  store i32 %34, ptr %indvars.iv60.sroa.phi67, align 4, !tbaa !12
  %35 = load i32, ptr %indvars.iv60.sroa.phi70, align 4, !tbaa !12
  %36 = add nsw i32 %35, 1
  %37 = ashr i32 %36, 1
  store i32 %37, ptr %indvars.iv60.sroa.phi70, align 4, !tbaa !12
  br i1 %23, label %.critedge, label %.loopexit, !llvm.loop !17

._crit_edge:                                      ; preds = %.loopexit, %4
  switch i32 %3, label %54 [
    i32 0, label %38
    i32 2, label %43
    i32 1, label %48
  ]

38:                                               ; preds = %._crit_edge
  %39 = add nsw i32 %., 12
  %40 = sext i32 %39 to i64
  %41 = tail call ptr @av_malloc_array(i64 noundef %40, i64 noundef 4) #8
  %42 = getelementptr inbounds nuw i8, ptr %0, i64 336
  store ptr %41, ptr %42, align 8, !tbaa !18
  %.not50 = icmp eq ptr %41, null
  br i1 %.not50, label %54, label %53

43:                                               ; preds = %._crit_edge
  %44 = add nsw i32 %., 12
  %45 = sext i32 %44 to i64
  %46 = tail call ptr @av_malloc_array(i64 noundef %45, i64 noundef 4) #8
  %47 = getelementptr inbounds nuw i8, ptr %0, i64 328
  store ptr %46, ptr %47, align 8, !tbaa !19
  %.not49 = icmp eq ptr %46, null
  br i1 %.not49, label %54, label %53

48:                                               ; preds = %._crit_edge
  %49 = add nsw i32 %., 6
  %50 = sext i32 %49 to i64
  %51 = tail call ptr @av_malloc_array(i64 noundef %50, i64 noundef 4) #8
  %52 = getelementptr inbounds nuw i8, ptr %0, i64 328
  store ptr %51, ptr %52, align 8, !tbaa !19
  %.not = icmp eq ptr %51, null
  br i1 %.not, label %54, label %53

53:                                               ; preds = %48, %43, %38
  br label %54

54:                                               ; preds = %._crit_edge, %48, %43, %38, %53
  %.0 = phi i32 [ 0, %53 ], [ -12, %38 ], [ -12, %43 ], [ -12, %48 ], [ -1, %._crit_edge ]
  call void @llvm.lifetime.end.p0(i64 16, ptr nonnull %5) #8
  ret i32 %.0
}